target datalayout = "e-m:e-p270:32:32-p271:32:32-p272:64:64-i64:64-i128:128-f80:128-n8:16:32:64-S128"
target triple = "x86_64-pc-linux-gnu"

%class.cmUVProcessChain = type { %"class.std::unique_ptr" }
%"class.std::unique_ptr" = type { %"struct.std::__uniq_ptr_data" }
%"struct.std::__uniq_ptr_data" = type { %"class.std::__uniq_ptr_impl" }
%"class.std::__uniq_ptr_impl" = type { %"class.std::tuple" }
%"class.std::tuple" = type { %"struct.std::_Tuple_impl" }
%"struct.std::_Tuple_impl" = type { %"struct.std::_Head_base.13" }
%"struct.std::_Head_base.13" = type { ptr }
%"struct.cmUVProcessChain::InternalData" = type { ptr, i8, %"class.cm::uv_loop_ptr", ptr, %"struct.cmUVProcessChain::InternalData::StreamData", %"struct.cmUVProcessChain::InternalData::StreamData", %"struct.cmUVProcessChain::InternalData::StreamData", %"struct.cm::uv_pipe_ptr", %"struct.cm::uv_pipe_ptr", i32, %"class.std::vector.18" }
%"class.cm::uv_loop_ptr" = type { %"class.std::shared_ptr" }
%"class.std::shared_ptr" = type { %"class.std::__shared_ptr" }
%"class.std::__shared_ptr" = type { ptr, %"class.std::__shared_count" }
%"class.std::__shared_count" = type { ptr }
%"struct.cmUVProcessChain::InternalData::StreamData" = type { i32, %struct.uv_stdio_container_s }
%struct.uv_stdio_container_s = type { i32, %union.anon.14 }
%union.anon.14 = type { ptr }
%"struct.cm::uv_pipe_ptr" = type { %"class.cm::uv_handle_ptr_" }
%"class.cm::uv_handle_ptr_" = type { %"class.cm::uv_handle_ptr_base_" }
%"class.cm::uv_handle_ptr_base_" = type { %"class.std::shared_ptr.15" }
%"class.std::shared_ptr.15" = type { %"class.std::__shared_ptr.16" }
%"class.std::__shared_ptr.16" = type { ptr, %"class.std::__shared_count" }
%"class.std::vector.18" = type { %"struct.std::_Vector_base.19" }
%"struct.std::_Vector_base.19" = type { %"struct.std::_Vector_base<std::unique_ptr<cmUVProcessChain::InternalData::ProcessData>, std::allocator<std::unique_ptr<cmUVProcessChain::InternalData::ProcessData>>>::_Vector_impl" }
%"struct.std::_Vector_base<std::unique_ptr<cmUVProcessChain::InternalData::ProcessData>, std::allocator<std::unique_ptr<cmUVProcessChain::InternalData::ProcessData>>>::_Vector_impl" = type { %"struct.std::_Vector_base<std::unique_ptr<cmUVProcessChain::InternalData::ProcessData>, std::allocator<std::unique_ptr<cmUVProcessChain::InternalData::ProcessData>>>::_Vector_impl_data" }
%"struct.std::_Vector_base<std::unique_ptr<cmUVProcessChain::InternalData::ProcessData>, std::allocator<std::unique_ptr<cmUVProcessChain::InternalData::ProcessData>>>::_Vector_impl_data" = type { ptr, ptr, ptr }
%"struct.cm::uv_timer_ptr" = type { %"class.cm::uv_handle_ptr_.42" }
%"class.cm::uv_handle_ptr_.42" = type { %"class.cm::uv_handle_ptr_base_.43" }
%"class.cm::uv_handle_ptr_base_.43" = type { %"class.std::shared_ptr.44" }
%"class.std::shared_ptr.44" = type { %"class.std::__shared_ptr.45" }
%"class.std::__shared_ptr.45" = type { ptr, %"class.std::__shared_count" }
%class.anon.47 = type { i8 }

; Function Attrs: mustprogress nounwind uwtable
define linkonce_odr dso_local noundef nonnull align 8 dereferenceable(8) ptr @_ZNSt10_Head_baseILm0EPN16cmUVProcessChain12InternalDataELb0EE7_M_headERKS3_(ptr noundef nonnull align 8 dereferenceable(8) %0) #0 comdat align 2 {
  %2 = alloca ptr, align 8
  store ptr %0, ptr %2, align 8
  %3 = load ptr, ptr %2, align 8
  %4 = getelementptr inbounds %"struct.std::_Head_base.13", ptr %3, i32 0, i32 0
  ret ptr %4
}

; Function Attrs: mustprogress nounwind uwtable
define linkonce_odr dso_local noundef nonnull align 8 dereferenceable(8) ptr @_ZNSt11_Tuple_implILm0EJPN16cmUVProcessChain12InternalDataESt14default_deleteIS1_EEE7_M_headERKS5_(ptr noundef nonnull align 8 dereferenceable(8) %0) #0 comdat align 2 {
  %2 = alloca ptr, align 8
  store ptr %0, ptr %2, align 8
  %3 = load ptr, ptr %2, align 8
  %4 = call noundef nonnull align 8 dereferenceable(8) ptr @_ZNSt10_Head_baseILm0EPN16cmUVProcessChain12InternalDataELb0EE7_M_headERKS3_(ptr noundef nonnull align 8 dereferenceable(8) %3) #12
  ret ptr %4
}

; Function Attrs: mustprogress nounwind uwtable
define linkonce_odr dso_local noundef nonnull align 8 dereferenceable(8) ptr @_ZSt12__get_helperILm0EPN16cmUVProcessChain12InternalDataEJSt14default_deleteIS1_EEERKT0_RKSt11_Tuple_implIXT_EJS5_DpT1_EE(ptr noundef nonnull align 8 dereferenceable(8) %0) #0 comdat {
  %2 = alloca ptr, align 8
  store ptr %0, ptr %2, align 8
  %3 = load ptr, ptr %2, align 8
  %4 = call noundef nonnull align 8 dereferenceable(8) ptr @_ZNSt11_Tuple_implILm0EJPN16cmUVProcessChain12InternalDataESt14default_deleteIS1_EEE7_M_headERKS5_(ptr noundef nonnull align 8 dereferenceable(8) %3) #12
  ret ptr %4
}

; Function Attrs: mustprogress nounwind uwtable
define linkonce_odr dso_local noundef nonnull align 8 dereferenceable(8) ptr @_ZSt3getILm0EJPN16cmUVProcessChain12InternalDataESt14default_deleteIS1_EEERKNSt13tuple_elementIXT_ESt5tupleIJDpT0_EEE4typeERKS9_(ptr noundef nonnull align 8 dereferenceable(8) %0) #0 comdat {
  %2 = alloca ptr, align 8
  store ptr %0, ptr %2, align 8
  %3 = load ptr, ptr %2, align 8
  %4 = call noundef nonnull align 8 dereferenceable(8) ptr @_ZSt12__get_helperILm0EPN16cmUVProcessChain12InternalDataEJSt14default_deleteIS1_EEERKT0_RKSt11_Tuple_implIXT_EJS5_DpT1_EE(ptr noundef nonnull align 8 dereferenceable(8) %3) #12
  ret ptr %4
}

; Function Attrs: mustprogress nounwind uwtable
define linkonce_odr dso_local noundef ptr @_ZNKSt15__uniq_ptr_implIN16cmUVProcessChain12InternalDataESt14default_deleteIS1_EE6_M_ptrEv(ptr noundef nonnull align 8 dereferenceable(8) %0) #0 comdat align 2 {
  %2 = alloca ptr, align 8
  store ptr %0, ptr %2, align 8
  %3 = load ptr, ptr %2, align 8
  %4 = getelementptr inbounds %"class.std::__uniq_ptr_impl", ptr %3, i32 0, i32 0
  %5 = call noundef nonnull align 8 dereferenceable(8) ptr @_ZSt3getILm0EJPN16cmUVProcessChain12InternalDataESt14default_deleteIS1_EEERKNSt13tuple_elementIXT_ESt5tupleIJDpT0_EEE4typeERKS9_(ptr noundef nonnull align 8 dereferenceable(8) %4) #12
  %6 = load ptr, ptr %5, align 8
  ret ptr %6
}

; Function Attrs: mustprogress nounwind uwtable
define linkonce_odr dso_local void @_ZN2cm14uv_handle_ptr_I10uv_timer_sED2Ev(ptr noundef nonnull align 8 dereferenceable(16) %0) unnamed_addr #0 comdat align 2 {
  %2 = alloca ptr, align 8
  store ptr %0, ptr %2, align 8
  %3 = load ptr, ptr %2, align 8
  call void @_ZN2cm19uv_handle_ptr_base_I10uv_timer_sED2Ev(ptr noundef nonnull align 8 dereferenceable(16) %3) #12
  ret void
}

; Function Attrs: mustprogress nounwind uwtable
define linkonce_odr dso_local noundef ptr @_ZNKSt10unique_ptrIN16cmUVProcessChain12InternalDataESt14default_deleteIS1_EE3getEv(ptr noundef nonnull align 8 dereferenceable(8) %0) #0 comdat align 2 {
  %2 = alloca ptr, align 8
  store ptr %0, ptr %2, align 8
  %3 = load ptr, ptr %2, align 8
  %4 = getelementptr inbounds %"class.std::unique_ptr", ptr %3, i32 0, i32 0
  %5 = call noundef ptr @_ZNKSt15__uniq_ptr_implIN16cmUVProcessChain12InternalDataESt14default_deleteIS1_EE6_M_ptrEv(ptr noundef nonnull align 8 dereferenceable(8) %4) #12
  ret ptr %5
}

; Function Attrs: mustprogress uwtable
define linkonce_odr dso_local void @_ZN2cm14uv_handle_ptr_I10uv_timer_sEC2Ev(ptr noundef nonnull align 8 dereferenceable(16) %0) unnamed_addr #2 comdat align 2 {
  %2 = alloca ptr, align 8
  store ptr %0, ptr %2, align 8
  %3 = load ptr, ptr %2, align 8
  call void @_ZN2cm19uv_handle_ptr_base_I10uv_timer_sEC2Ev(ptr noundef nonnull align 8 dereferenceable(16) %3)
  ret void
}

; Function Attrs: mustprogress nounwind uwtable
define linkonce_odr dso_local noundef i64 @_ZNKSt6vectorISt10unique_ptrIN16cmUVProcessChain12InternalData11ProcessDataESt14default_deleteIS3_EESaIS6_EE4sizeEv(ptr noundef nonnull align 8 dereferenceable(24) %0) #0 comdat align 2 {
  %2 = alloca ptr, align 8
  store ptr %0, ptr %2, align 8
  %3 = load ptr, ptr %2, align 8
  %4 = getelementptr inbounds %"struct.std::_Vector_base.19", ptr %3, i32 0, i32 0
  %5 = getelementptr inbounds %"struct.std::_Vector_base<std::unique_ptr<cmUVProcessChain::InternalData::ProcessData>, std::allocator<std::unique_ptr<cmUVProcessChain::InternalData::ProcessData>>>::_Vector_impl_data", ptr %4, i32 0, i32 1
  %6 = load ptr, ptr %5, align 8
  %7 = getelementptr inbounds %"struct.std::_Vector_base.19", ptr %3, i32 0, i32 0
  %8 = getelementptr inbounds %"struct.std::_Vector_base<std::unique_ptr<cmUVProcessChain::InternalData::ProcessData>, std::allocator<std::unique_ptr<cmUVProcessChain::InternalData::ProcessData>>>::_Vector_impl_data", ptr %7, i32 0, i32 0
  %9 = load ptr, ptr %8, align 8
  %10 = ptrtoint ptr %6 to i64
  %11 = ptrtoint ptr %9 to i64
  %12 = sub i64 %10, %11
  %13 = sdiv exact i64 %12, 8
  ret i64 %13
}

; Function Attrs: mustprogress nounwind uwtable
define linkonce_odr dso_local void @_ZN2cm12uv_timer_ptrD2Ev(ptr noundef nonnull align 8 dereferenceable(16) %0) unnamed_addr #0 comdat align 2 {
  %2 = alloca ptr, align 8
  store ptr %0, ptr %2, align 8
  %3 = load ptr, ptr %2, align 8
  call void @_ZN2cm14uv_handle_ptr_I10uv_timer_sED2Ev(ptr noundef nonnull align 8 dereferenceable(16) %3) #12
  ret void
}

; Function Attrs: mustprogress nounwind uwtable
define internal noundef ptr @"_ZZN16cmUVProcessChain4WaitEmENK3$_0cvPFvP10uv_timer_sEEv"(ptr noundef nonnull align 1 dereferenceable(1) %0) #0 align 2 {
  %2 = alloca ptr, align 8
  store ptr %0, ptr %2, align 8
  ret ptr @"_ZZN16cmUVProcessChain4WaitEmEN3$_08__invokeEP10uv_timer_s"
}

; Function Attrs: mustprogress nounwind uwtable
define linkonce_odr dso_local noundef ptr @_ZNKSt10unique_ptrIN16cmUVProcessChain12InternalDataESt14default_deleteIS1_EEptEv(ptr noundef nonnull align 8 dereferenceable(8) %0) #0 comdat align 2 {
  %2 = alloca ptr, align 8
  store ptr %0, ptr %2, align 8
  %3 = load ptr, ptr %2, align 8
  %4 = call noundef ptr @_ZNKSt10unique_ptrIN16cmUVProcessChain12InternalDataESt14default_deleteIS1_EE3getEv(ptr noundef nonnull align 8 dereferenceable(8) %3) #12
  ret ptr %4
}

; Function Attrs: mustprogress uwtable
define linkonce_odr dso_local void @_ZN2cm12uv_timer_ptrC2Ev(ptr noundef nonnull align 8 dereferenceable(16) %0) unnamed_addr #2 comdat align 2 {
  %2 = alloca ptr, align 8
  store ptr %0, ptr %2, align 8
  %3 = load ptr, ptr %2, align 8
  call void @_ZN2cm14uv_handle_ptr_I10uv_timer_sEC2Ev(ptr noundef nonnull align 8 dereferenceable(16) %3)
  ret void
}

; Function Attrs: mustprogress uwtable
define dso_local noundef zeroext i1 @_ZN16cmUVProcessChain4WaitEm(ptr noundef nonnull align 8 dereferenceable(8) %0, i64 noundef %1) #2 align 2 personality ptr @__gxx_personality_v0 {
  %3 = alloca ptr, align 8
  %4 = alloca i64, align 8
  %5 = alloca i8, align 1
  %6 = alloca %"struct.cm::uv_timer_ptr", align 8
  %7 = alloca ptr, align 8
  %8 = alloca i32, align 4
  %9 = alloca %class.anon.47, align 1
  store ptr %0, ptr %3, align 8
  store i64 %1, ptr %4, align 8
  %10 = load ptr, ptr %3, align 8
  store i8 0, ptr %5, align 1
  call void @_ZN2cm12uv_timer_ptrC2Ev(ptr noundef nonnull align 8 dereferenceable(16) %6)
  %11 = load i64, ptr %4, align 8
  %12 = icmp ugt i64 %11, 0
  br i1 %12, label %13, label %28

13:                                               ; preds = %2
  %14 = getelementptr inbounds %class.cmUVProcessChain, ptr %10, i32 0, i32 0
  %15 = call noundef ptr @_ZNKSt10unique_ptrIN16cmUVProcessChain12InternalDataESt14default_deleteIS1_EEptEv(ptr noundef nonnull align 8 dereferenceable(8) %14) #12
  %16 = getelementptr inbounds %"struct.cmUVProcessChain::InternalData", ptr %15, i32 0, i32 3
  %17 = load ptr, ptr %16, align 8
  %18 = invoke noundef i32 @_ZN2cm12uv_timer_ptr4initER9uv_loop_sPv(ptr noundef nonnull align 8 dereferenceable(16) %6, ptr noundef nonnull align 8 dereferenceable(848) %17, ptr noundef %5)
          to label %19 unwind label %24

19:                                               ; preds = %13
  %20 = call noundef ptr @"_ZZN16cmUVProcessChain4WaitEmENK3$_0cvPFvP10uv_timer_sEEv"(ptr noundef nonnull align 1 dereferenceable(1) %9) #12
  %21 = load i64, ptr %4, align 8
  %22 = invoke noundef i32 @_ZN2cm12uv_timer_ptr5startEPFvP10uv_timer_sEmm(ptr noundef nonnull align 8 dereferenceable(16) %6, ptr noundef %20, i64 noundef %21, i64 noundef 0)
          to label %23 unwind label %24

23:                                               ; preds = %19
  br label %28

24:                                               ; preds = %45, %19, %13
  %25 = landingpad { ptr, i32 }
          cleanup
  %26 = extractvalue { ptr, i32 } %25, 0
  store ptr %26, ptr %7, align 8
  %27 = extractvalue { ptr, i32 } %25, 1
  store i32 %27, ptr %8, align 4
  call void @_ZN2cm12uv_timer_ptrD2Ev(ptr noundef nonnull align 8 dereferenceable(16) %6) #12
  br label %56

28:                                               ; preds = %23, %2
  br label %29

29:                                               ; preds = %51, %28
  %30 = load i8, ptr %5, align 1
  %31 = trunc i8 %30 to i1
  br i1 %31, label %43, label %32

32:                                               ; preds = %29
  %33 = getelementptr inbounds %class.cmUVProcessChain, ptr %10, i32 0, i32 0
  %34 = call noundef ptr @_ZNKSt10unique_ptrIN16cmUVProcessChain12InternalDataESt14default_deleteIS1_EEptEv(ptr noundef nonnull align 8 dereferenceable(8) %33) #12
  %35 = getelementptr inbounds %"struct.cmUVProcessChain::InternalData", ptr %34, i32 0, i32 9
  %36 = load i32, ptr %35, align 8
  %37 = zext i32 %36 to i64
  %38 = getelementptr inbounds %class.cmUVProcessChain, ptr %10, i32 0, i32 0
  %39 = call noundef ptr @_ZNKSt10unique_ptrIN16cmUVProcessChain12InternalDataESt14default_deleteIS1_EEptEv(ptr noundef nonnull align 8 dereferenceable(8) %38) #12
  %40 = getelementptr inbounds %"struct.cmUVProcessChain::InternalData", ptr %39, i32 0, i32 10
  %41 = call noundef i64 @_ZNKSt6vectorISt10unique_ptrIN16cmUVProcessChain12InternalData11ProcessDataESt14default_deleteIS3_EESaIS6_EE4sizeEv(ptr noundef nonnull align 8 dereferenceable(24) %40) #12
  %42 = icmp ult i64 %37, %41
  br label %43

43:                                               ; preds = %32, %29
  %44 = phi i1 [ false, %29 ], [ %42, %32 ]
  br i1 %44, label %45, label %52

45:                                               ; preds = %43
  %46 = getelementptr inbounds %class.cmUVProcessChain, ptr %10, i32 0, i32 0
  %47 = call noundef ptr @_ZNKSt10unique_ptrIN16cmUVProcessChain12InternalDataESt14default_deleteIS1_EEptEv(ptr noundef nonnull align 8 dereferenceable(8) %46) #12
  %48 = getelementptr inbounds %"struct.cmUVProcessChain::InternalData", ptr %47, i32 0, i32 3
  %49 = load ptr, ptr %48, align 8
  %50 = invoke i32 @uv_run(ptr noundef %49, i32 noundef 1)
          to label %51 unwind label %24

51:                                               ; preds = %45
  br label %29, !llvm.loop !8

52:                                               ; preds = %43
  %53 = load i8, ptr %5, align 1
  %54 = trunc i8 %53 to i1
  %55 = xor i1 %54, true
  call void @_ZN2cm12uv_timer_ptrD2Ev(ptr noundef nonnull align 8 dereferenceable(16) %6) #12
  ret i1 %55

56:                                               ; preds = %24
  %57 = load ptr, ptr %7, align 8
  %58 = load i32, ptr %8, align 4
  %59 = insertvalue { ptr, i32 } poison, ptr %57, 0
  %60 = insertvalue { ptr, i32 } %59, i32 %58, 1
  resume { ptr, i32 } %60
}