; Function Attrs: mustprogress uwtable
define dso_local noundef zeroext i1 @_ZN16cmUVProcessChain4WaitEm(ptr noundef nonnull readonly align 8 captures(none) dereferenceable(8) %0, i64 noundef %1) local_unnamed_addr #2 align 2 personality ptr @__gxx_personality_v0 {
  %3 = alloca i8, align 1
  %4 = alloca %"struct.cm::uv_timer_ptr", align 8
  store i8 0, ptr %3, align 1
  call void @_ZN2cm19uv_handle_ptr_base_I10uv_timer_sEC2Ev(ptr noundef nonnull align 8 dereferenceable(16) %4)
  %.not = icmp eq i64 %1, 0
  br i1 %.not, label %.preheader, label %5

.preheader:                                       ; preds = %10, %2
  br label %13

5:                                                ; preds = %2
  %6 = load ptr, ptr %0, align 8
  %7 = getelementptr inbounds nuw i8, ptr %6, i64 32
  %8 = load ptr, ptr %7, align 8
  %9 = invoke noundef i32 @_ZN2cm12uv_timer_ptr4initER9uv_loop_sPv(ptr noundef nonnull align 8 dereferenceable(16) %4, ptr noundef nonnull align 8 dereferenceable(848) %8, ptr noundef nonnull %3)
          to label %10 unwind label %.loopexit.split-lp

10:                                               ; preds = %5
  %11 = invoke noundef i32 @_ZN2cm12uv_timer_ptr5startEPFvP10uv_timer_sEmm(ptr noundef nonnull align 8 dereferenceable(16) %4, ptr noundef nonnull @"_ZZN16cmUVProcessChain4WaitEmEN3$_08__invokeEP10uv_timer_s", i64 noundef %1, i64 noundef 0)
          to label %.preheader unwind label %.loopexit.split-lp

.loopexit:                                        ; preds = %30
  %lpad.loopexit = landingpad { ptr, i32 }
          cleanup
  br label %12

.loopexit.split-lp:                               ; preds = %5, %10
  %lpad.loopexit.split-lp = landingpad { ptr, i32 }
          cleanup
  br label %12

12:                                               ; preds = %.loopexit.split-lp, %.loopexit
  %lpad.phi = phi { ptr, i32 } [ %lpad.loopexit, %.loopexit ], [ %lpad.loopexit.split-lp, %.loopexit.split-lp ]
  call void @_ZN2cm19uv_handle_ptr_base_I10uv_timer_sED2Ev(ptr noundef nonnull align 8 dereferenceable(16) %4) #22
  resume { ptr, i32 } %lpad.phi

13:                                               ; preds = %.preheader, %30
  %14 = load i8, ptr %3, align 1
  %15 = trunc i8 %14 to i1
  br i1 %15, label %.critedge, label %16

16:                                               ; preds = %13
  %17 = load ptr, ptr %0, align 8
  %18 = getelementptr inbounds nuw i8, ptr %17, i64 144
  %19 = load i32, ptr %18, align 8
  %20 = zext i32 %19 to i64
  %21 = getelementptr inbounds nuw i8, ptr %17, i64 152
  %22 = getelementptr inbounds nuw i8, ptr %17, i64 160
  %23 = load ptr, ptr %22, align 8
  %24 = load ptr, ptr %21, align 8
  %25 = ptrtoint ptr %23 to i64
  %26 = ptrtoint ptr %24 to i64
  %27 = sub i64 %25, %26
  %28 = ashr exact i64 %27, 3
  %29 = icmp ugt i64 %28, %20
  br i1 %29, label %30, label %.critedge

30:                                               ; preds = %16
  %31 = getelementptr inbounds nuw i8, ptr %17, i64 32
  %32 = load ptr, ptr %31, align 8
  %33 = invoke i32 @uv_run(ptr noundef %32, i32 noundef 1)
          to label %13 unwind label %.loopexit, !llvm.loop !28

.critedge:                                        ; preds = %13, %16
  %34 = xor i1 %15, true
  call void @_ZN2cm19uv_handle_ptr_base_I10uv_timer_sED2Ev(ptr noundef nonnull align 8 dereferenceable(16) %4) #22
  ret i1 %34
}